target datalayout = "e-m:e-p270:32:32-p271:32:32-p272:64:64-i64:64-i128:128-f80:128-n8:16:32:64-S128"
target triple = "x86_64-pc-linux-gnu"

%struct.binascii_state = type { ptr, ptr }

; Function Attrs: inlinehint nounwind uwtable
define internal ptr @get_binascii_state(ptr noundef %0) #4 {
  %2 = alloca ptr, align 8
  store ptr %0, ptr %2, align 8, !tbaa !3
  %3 = load ptr, ptr %2, align 8, !tbaa !3
  %4 = call ptr @PyModule_GetState(ptr noundef %3)
  ret ptr %4
}

; Function Attrs: nounwind uwtable
define internal i32 @binascii_traverse(ptr noundef %0, ptr noundef %1, ptr noundef %2) #0 {
  %4 = alloca i32, align 4
  %5 = alloca ptr, align 8
  %6 = alloca ptr, align 8
  %7 = alloca ptr, align 8
  %8 = alloca ptr, align 8
  %9 = alloca i32, align 4
  %10 = alloca i32, align 4
  %11 = alloca i32, align 4
  store ptr %0, ptr %5, align 8, !tbaa !3
  store ptr %1, ptr %6, align 8, !tbaa !8
  store ptr %2, ptr %7, align 8, !tbaa !8
  call void @llvm.lifetime.start.p0(i64 8, ptr %8) #7
  %12 = load ptr, ptr %5, align 8, !tbaa !3
  %13 = call ptr @get_binascii_state(ptr noundef %12)
  store ptr %13, ptr %8, align 8, !tbaa !9
  br label %14

14:                                               ; preds = %3
  %15 = load ptr, ptr %8, align 8, !tbaa !9
  %16 = getelementptr inbounds nuw %struct.binascii_state, ptr %15, i32 0, i32 0
  %17 = load ptr, ptr %16, align 8, !tbaa !11
  %18 = icmp ne ptr %17, null
  br i1 %18, label %19, label %34

19:                                               ; preds = %14
  call void @llvm.lifetime.start.p0(i64 4, ptr %9) #7
  %20 = load ptr, ptr %6, align 8, !tbaa !8
  %21 = load ptr, ptr %8, align 8, !tbaa !9
  %22 = getelementptr inbounds nuw %struct.binascii_state, ptr %21, i32 0, i32 0
  %23 = load ptr, ptr %22, align 8, !tbaa !11
  %24 = load ptr, ptr %7, align 8, !tbaa !8
  %25 = call i32 %20(ptr noundef %23, ptr noundef %24)
  store i32 %25, ptr %9, align 4, !tbaa !13
  %26 = load i32, ptr %9, align 4, !tbaa !13
  %27 = icmp ne i32 %26, 0
  br i1 %27, label %28, label %30

28:                                               ; preds = %19
  %29 = load i32, ptr %9, align 4, !tbaa !13
  store i32 %29, ptr %4, align 4
  store i32 1, ptr %10, align 4
  br label %31

30:                                               ; preds = %19
  store i32 0, ptr %10, align 4
  br label %31

31:                                               ; preds = %30, %28
  call void @llvm.lifetime.end.p0(i64 4, ptr %9) #7
  %32 = load i32, ptr %10, align 4
  switch i32 %32, label %60 [
    i32 0, label %33
  ]

33:                                               ; preds = %31
  br label %34

34:                                               ; preds = %33, %14
  br label %35

35:                                               ; preds = %34
  br label %36

36:                                               ; preds = %35
  br label %37

37:                                               ; preds = %36
  %38 = load ptr, ptr %8, align 8, !tbaa !9
  %39 = getelementptr inbounds nuw %struct.binascii_state, ptr %38, i32 0, i32 1
  %40 = load ptr, ptr %39, align 8, !tbaa !15
  %41 = icmp ne ptr %40, null
  br i1 %41, label %42, label %57

42:                                               ; preds = %37
  call void @llvm.lifetime.start.p0(i64 4, ptr %11) #7
  %43 = load ptr, ptr %6, align 8, !tbaa !8
  %44 = load ptr, ptr %8, align 8, !tbaa !9
  %45 = getelementptr inbounds nuw %struct.binascii_state, ptr %44, i32 0, i32 1
  %46 = load ptr, ptr %45, align 8, !tbaa !15
  %47 = load ptr, ptr %7, align 8, !tbaa !8
  %48 = call i32 %43(ptr noundef %46, ptr noundef %47)
  store i32 %48, ptr %11, align 4, !tbaa !13
  %49 = load i32, ptr %11, align 4, !tbaa !13
  %50 = icmp ne i32 %49, 0
  br i1 %50, label %51, label %53

51:                                               ; preds = %42
  %52 = load i32, ptr %11, align 4, !tbaa !13
  store i32 %52, ptr %4, align 4
  store i32 1, ptr %10, align 4
  br label %54

53:                                               ; preds = %42
  store i32 0, ptr %10, align 4
  br label %54

54:                                               ; preds = %53, %51
  call void @llvm.lifetime.end.p0(i64 4, ptr %11) #7
  %55 = load i32, ptr %10, align 4
  switch i32 %55, label %60 [
    i32 0, label %56
  ]

56:                                               ; preds = %54
  br label %57

57:                                               ; preds = %56, %37
  br label %58

58:                                               ; preds = %57
  br label %59

59:                                               ; preds = %58
  store i32 0, ptr %4, align 4
  store i32 1, ptr %10, align 4
  br label %60

60:                                               ; preds = %59, %54, %31
  call void @llvm.lifetime.end.p0(i64 8, ptr %8) #7
  %61 = load i32, ptr %4, align 4
  ret i32 %61
}